target datalayout = "e-m:e-p270:32:32-p271:32:32-p272:64:64-i64:64-i128:128-f80:128-n8:16:32:64-S128"
target triple = "x86_64-pc-linux-gnu"

@.str.64 = private unnamed_addr constant [6 x i8] c"umask\00", align 1
@.str.65 = private unnamed_addr constant [6 x i8] c"group\00", align 1
@.str.66 = private unnamed_addr constant [4 x i8] c"all\00", align 1
@.str.67 = private unnamed_addr constant [6 x i8] c"world\00", align 1
@.str.68 = private unnamed_addr constant [10 x i8] c"everybody\00", align 1
@.str.69 = private unnamed_addr constant [123 x i8] c"problem with core.sharedRepository filemode value (0%.3o).\0AThe owner of files must always have read and write permissions.\00", align 1

; Function Attrs: nounwind uwtable
define dso_local i32 @git_config_perm(ptr noundef %0, ptr noundef %1) #0 {
  %3 = alloca i32, align 4
  %4 = alloca ptr, align 8
  %5 = alloca ptr, align 8
  %6 = alloca i32, align 4
  %7 = alloca ptr, align 8
  %8 = alloca i32, align 4
  store ptr %0, ptr %4, align 8, !tbaa !4
  store ptr %1, ptr %5, align 8, !tbaa !4
  call void @llvm.lifetime.start.p0(i64 4, ptr %6) #13
  call void @llvm.lifetime.start.p0(i64 8, ptr %7) #13
  %9 = load ptr, ptr %5, align 8, !tbaa !4
  %10 = icmp ne ptr %9, null
  br i1 %10, label %12, label %11

11:                                               ; preds = %2
  store i32 432, ptr %3, align 4
  store i32 1, ptr %8, align 4
  br label %65

12:                                               ; preds = %2
  %13 = load ptr, ptr %5, align 8, !tbaa !4
  %14 = call i32 @strcmp(ptr noundef %13, ptr noundef @.str.64) #14
  %15 = icmp ne i32 %14, 0
  br i1 %15, label %17, label %16

16:                                               ; preds = %12
  store i32 0, ptr %3, align 4
  store i32 1, ptr %8, align 4
  br label %65

17:                                               ; preds = %12
  %18 = load ptr, ptr %5, align 8, !tbaa !4
  %19 = call i32 @strcmp(ptr noundef %18, ptr noundef @.str.65) #14
  %20 = icmp ne i32 %19, 0
  br i1 %20, label %22, label %21

21:                                               ; preds = %17
  store i32 432, ptr %3, align 4
  store i32 1, ptr %8, align 4
  br label %65

22:                                               ; preds = %17
  %23 = load ptr, ptr %5, align 8, !tbaa !4
  %24 = call i32 @strcmp(ptr noundef %23, ptr noundef @.str.66) #14
  %25 = icmp ne i32 %24, 0
  br i1 %25, label %26, label %34

26:                                               ; preds = %22
  %27 = load ptr, ptr %5, align 8, !tbaa !4
  %28 = call i32 @strcmp(ptr noundef %27, ptr noundef @.str.67) #14
  %29 = icmp ne i32 %28, 0
  br i1 %29, label %30, label %34

30:                                               ; preds = %26
  %31 = load ptr, ptr %5, align 8, !tbaa !4
  %32 = call i32 @strcmp(ptr noundef %31, ptr noundef @.str.68) #14
  %33 = icmp ne i32 %32, 0
  br i1 %33, label %35, label %34

34:                                               ; preds = %30, %26, %22
  store i32 436, ptr %3, align 4
  store i32 1, ptr %8, align 4
  br label %65

35:                                               ; preds = %30
  %36 = load ptr, ptr %5, align 8, !tbaa !4
  %37 = call i64 @strtol(ptr noundef %36, ptr noundef %7, i32 noundef 8) #13
  %38 = trunc i64 %37 to i32
  store i32 %38, ptr %6, align 4, !tbaa !9
  %39 = load ptr, ptr %7, align 8, !tbaa !4
  %40 = load i8, ptr %39, align 1, !tbaa !13
  %41 = sext i8 %40 to i32
  %42 = icmp ne i32 %41, 0
  br i1 %42, label %43, label %49

43:                                               ; preds = %35
  %44 = load ptr, ptr %4, align 8, !tbaa !4
  %45 = load ptr, ptr %5, align 8, !tbaa !4
  %46 = call i32 @git_config_bool(ptr noundef %44, ptr noundef %45)
  %47 = icmp ne i32 %46, 0
  %48 = select i1 %47, i32 432, i32 0
  store i32 %48, ptr %3, align 4
  store i32 1, ptr %8, align 4
  br label %65

49:                                               ; preds = %35
  %50 = load i32, ptr %6, align 4, !tbaa !9
  switch i32 %50, label %54 [
    i32 0, label %51
    i32 1, label %52
    i32 2, label %53
  ]

51:                                               ; preds = %49
  store i32 0, ptr %3, align 4
  store i32 1, ptr %8, align 4
  br label %65

52:                                               ; preds = %49
  store i32 432, ptr %3, align 4
  store i32 1, ptr %8, align 4
  br label %65

53:                                               ; preds = %49
  store i32 436, ptr %3, align 4
  store i32 1, ptr %8, align 4
  br label %65

54:                                               ; preds = %49
  %55 = load i32, ptr %6, align 4, !tbaa !9
  %56 = and i32 %55, 384
  %57 = icmp ne i32 %56, 384
  br i1 %57, label %58, label %61

58:                                               ; preds = %54
  %59 = call ptr @_(ptr noundef @.str.69)
  %60 = load i32, ptr %6, align 4, !tbaa !9
  call void (ptr, ...) @die(ptr noundef %59, i32 noundef %60) #15
  unreachable

61:                                               ; preds = %54
  %62 = load i32, ptr %6, align 4, !tbaa !9
  %63 = and i32 %62, 438
  %64 = sub nsw i32 0, %63
  store i32 %64, ptr %3, align 4
  store i32 1, ptr %8, align 4
  br label %65

65:                                               ; preds = %61, %53, %52, %51, %43, %34, %21, %16, %11
  call void @llvm.lifetime.end.p0(i64 8, ptr %7) #13
  call void @llvm.lifetime.end.p0(i64 4, ptr %6) #13
  %66 = load i32, ptr %3, align 4
  ret i32 %66
}