; Function Attrs: nounwind uwtable
define dso_local range(i32 -438, 437) i32 @git_config_perm(ptr noundef %0, ptr noundef %1) local_unnamed_addr #0 {
  %3 = alloca ptr, align 8
  call void @llvm.lifetime.start.p0(i64 8, ptr nonnull %3) #25
  %.not = icmp eq ptr %1, null
  br i1 %.not, label %32, label %4

4:                                                ; preds = %2
  %5 = tail call i32 @strcmp(ptr noundef nonnull dereferenceable(1) %1, ptr noundef nonnull dereferenceable(6) @.str.64) #24
  %.not14 = icmp eq i32 %5, 0
  br i1 %.not14, label %32, label %6

6:                                                ; preds = %4
  %7 = tail call i32 @strcmp(ptr noundef nonnull dereferenceable(1) %1, ptr noundef nonnull dereferenceable(6) @.str.65) #24
  %.not15 = icmp eq i32 %7, 0
  br i1 %.not15, label %32, label %8

8:                                                ; preds = %6
  %9 = tail call i32 @strcmp(ptr noundef nonnull dereferenceable(1) %1, ptr noundef nonnull dereferenceable(4) @.str.66) #24
  %.not16 = icmp eq i32 %9, 0
  br i1 %.not16, label %32, label %10

10:                                               ; preds = %8
  %11 = tail call i32 @strcmp(ptr noundef nonnull dereferenceable(1) %1, ptr noundef nonnull dereferenceable(6) @.str.67) #24
  %.not17 = icmp eq i32 %11, 0
  br i1 %.not17, label %32, label %12

12:                                               ; preds = %10
  %13 = tail call i32 @strcmp(ptr noundef nonnull dereferenceable(1) %1, ptr noundef nonnull dereferenceable(10) @.str.68) #24
  %.not18 = icmp eq i32 %13, 0
  br i1 %.not18, label %32, label %14

14:                                               ; preds = %12
  %15 = call i64 @strtol(ptr noundef nonnull %1, ptr noundef nonnull %3, i32 noundef 8) #25
  %16 = trunc i64 %15 to i32
  %17 = load ptr, ptr %3, align 8, !tbaa !58
  %18 = load i8, ptr %17, align 1, !tbaa !4
  %.not19 = icmp eq i8 %18, 0
  br i1 %.not19, label %22, label %19

19:                                               ; preds = %14
  %20 = tail call i32 @git_config_bool(ptr noundef %0, ptr noundef nonnull %1) #25
  %.not21 = icmp eq i32 %20, 0
  %21 = select i1 %.not21, i32 0, i32 432
  br label %32

22:                                               ; preds = %14
  %23 = icmp ult i32 %16, 3
  br i1 %23, label %switch.lookup, label %24

24:                                               ; preds = %22
  %25 = and i32 %16, 384
  %.not20 = icmp eq i32 %25, 384
  br i1 %.not20, label %28, label %26

26:                                               ; preds = %24
  %27 = tail call fastcc ptr @_(ptr noundef nonnull @.str.69)
  tail call void (ptr, ...) @die(ptr noundef %27, i32 noundef %16) #26
  unreachable

28:                                               ; preds = %24
  %29 = and i32 %16, 438
  %30 = sub nsw i32 0, %29
  br label %32

switch.lookup:                                    ; preds = %22
  %31 = and i64 %15, 3
  %switch.gep = getelementptr inbounds nuw [3 x i32], ptr @switch.table.git_config_perm, i64 0, i64 %31
  %switch.load = load i32, ptr %switch.gep, align 4
  br label %32

32:                                               ; preds = %switch.lookup, %8, %10, %12, %6, %4, %2, %28, %19
  %.0 = phi i32 [ %21, %19 ], [ %30, %28 ], [ 432, %2 ], [ 0, %4 ], [ 432, %6 ], [ 436, %12 ], [ 436, %10 ], [ 436, %8 ], [ %switch.load, %switch.lookup ]
  call void @llvm.lifetime.end.p0(i64 8, ptr nonnull %3) #25
  ret i32 %.0
}